target datalayout = "e-m:e-p270:32:32-p271:32:32-p272:64:64-i64:64-i128:128-f80:128-n8:16:32:64-S128"
target triple = "x86_64-pc-linux-gnu"

%struct.EndCallListItem = type { ptr, ptr }

@EndCallTop = internal global ptr null, align 8

; Function Attrs: nounwind uwtable
define dso_local void @onig_add_end_call(ptr noundef %0) #0 {
  %2 = alloca ptr, align 8
  %3 = alloca ptr, align 8
  %4 = alloca i32, align 4
  store ptr %0, ptr %2, align 8, !tbaa !15
  call void @llvm.lifetime.start.p0(i64 8, ptr %3) #9
  %5 = call noalias ptr @malloc(i64 noundef 16) #10
  store ptr %5, ptr %3, align 8, !tbaa !124
  %6 = load ptr, ptr %3, align 8, !tbaa !124
  %7 = icmp eq ptr %6, null
  br i1 %7, label %8, label %9

8:                                                ; preds = %1
  store i32 1, ptr %4, align 4
  br label %17

9:                                                ; preds = %1
  %10 = load ptr, ptr @EndCallTop, align 8, !tbaa !124
  %11 = load ptr, ptr %3, align 8, !tbaa !124
  %12 = getelementptr inbounds nuw %struct.EndCallListItem, ptr %11, i32 0, i32 0
  store ptr %10, ptr %12, align 8, !tbaa !126
  %13 = load ptr, ptr %2, align 8, !tbaa !15
  %14 = load ptr, ptr %3, align 8, !tbaa !124
  %15 = getelementptr inbounds nuw %struct.EndCallListItem, ptr %14, i32 0, i32 1
  store ptr %13, ptr %15, align 8, !tbaa !128
  %16 = load ptr, ptr %3, align 8, !tbaa !124
  store ptr %16, ptr @EndCallTop, align 8, !tbaa !124
  store i32 0, ptr %4, align 4
  br label %17

17:                                               ; preds = %9, %8
  call void @llvm.lifetime.end.p0(i64 8, ptr %3) #9
  %18 = load i32, ptr %4, align 4
  switch i32 %18, label %20 [
    i32 0, label %19
    i32 1, label %19
  ]

19:                                               ; preds = %17, %17
  ret void

20:                                               ; preds = %17
  unreachable
}